; Function Attrs: mustprogress uwtable
define noundef nonnull align 8 dereferenceable(64) ptr @_ZNK6icu_7510DateFormat6formatERKNS_11FormattableERNS_13UnicodeStringEPNS_21FieldPositionIteratorER10UErrorCode(ptr noundef nonnull align 8 dereferenceable(352) %this, ptr noundef nonnull align 8 dereferenceable(112) %obj, ptr noundef nonnull returned align 8 dereferenceable(64) %appendTo, ptr noundef %posIter, ptr noundef nonnull align 4 dereferenceable(4) %status) unnamed_addr #3 align 2 {
entry:
  %0 = load i32, ptr %status, align 4
  %cmp.i = icmp slt i32 %0, 1
  br i1 %cmp.i, label %if.end, label %return

if.end:                                           ; preds = %entry
  %call2 = tail call noundef i32 @_ZNK6icu_7511Formattable7getTypeEv(ptr noundef nonnull align 8 dereferenceable(112) %obj)
  switch i32 %call2, label %sw.default [
    i32 0, label %sw.bb
    i32 1, label %sw.bb4
    i32 2, label %sw.bb6
  ]

sw.bb:                                            ; preds = %if.end
  %fValue.i = getelementptr inbounds i8, ptr %obj, i64 8
  %1 = load double, ptr %fValue.i, align 8
  br label %sw.epilog

sw.bb4:                                           ; preds = %if.end
  %fValue.i8 = getelementptr inbounds i8, ptr %obj, i64 8
  %2 = load double, ptr %fValue.i8, align 8
  br label %sw.epilog

sw.bb6:                                           ; preds = %if.end
  %fValue.i9 = getelementptr inbounds i8, ptr %obj, i64 8
  %3 = load i64, ptr %fValue.i9, align 8
  %conv.i10 = trunc i64 %3 to i32
  %conv = sitofp i32 %conv.i10 to double
  br label %sw.epilog

sw.default:                                       ; preds = %if.end
  store i32 1, ptr %status, align 4
  br label %return

sw.epilog:                                        ; preds = %sw.bb6, %sw.bb4, %sw.bb
  %date.0 = phi double [ %conv, %sw.bb6 ], [ %2, %sw.bb4 ], [ %1, %sw.bb ]
  %call8 = tail call noundef nonnull align 8 dereferenceable(64) ptr @_ZNK6icu_7510DateFormat6formatEdRNS_13UnicodeStringEPNS_21FieldPositionIteratorER10UErrorCode(ptr noundef nonnull align 8 dereferenceable(352) %this, double noundef %date.0, ptr noundef nonnull align 8 dereferenceable(64) %appendTo, ptr noundef %posIter, ptr noundef nonnull align 4 dereferenceable(4) %status)
  br label %return

return:                                           ; preds = %entry, %sw.epilog, %sw.default
  ret ptr %appendTo
}